; Function Attrs: mustprogress nofree norecurse nosync nounwind willreturn memory(argmem: read) uwtable
define noundef zeroext i1 @_ZNK10open_spiel11leduc_poker10LeducState17ReadyForNextRoundEv(ptr nocapture noundef nonnull readonly align 8 dereferenceable(330) %0) local_unnamed_addr #7 align 2 {
  %2 = getelementptr inbounds nuw i8, ptr %0, i64 68
  %3 = load i32, ptr %2, align 4
  %4 = icmp eq i32 %3, 0
  br i1 %4, label %5, label %11

5:                                                ; preds = %1
  %6 = getelementptr inbounds nuw i8, ptr %0, i64 64
  %7 = load i32, ptr %6, align 8
  %8 = getelementptr inbounds nuw i8, ptr %0, i64 100
  %9 = load i32, ptr %8, align 4
  %10 = icmp eq i32 %7, %9
  br label %.thread

11:                                               ; preds = %1
  %12 = icmp sgt i32 %3, 0
  br i1 %12, label %13, label %.thread

13:                                               ; preds = %11
  %14 = getelementptr inbounds nuw i8, ptr %0, i64 64
  %15 = load i32, ptr %14, align 8
  %16 = getelementptr inbounds nuw i8, ptr %0, i64 100
  %17 = load i32, ptr %16, align 4
  %18 = add nsw i32 %17, -1
  %19 = icmp eq i32 %15, %18
  br label %.thread

.thread:                                          ; preds = %5, %11, %13
  %20 = phi i1 [ false, %11 ], [ %19, %13 ], [ %10, %5 ]
  ret i1 %20
}